; ModuleID = 'source-C-CXX/2/224.c'
source_filename = "source-C-CXX/2/224.c"
target datalayout = "e-m:e-p270:32:32-p271:32:32-p272:64:64-i64:64-f80:128-n8:16:32:64-S128"
target triple = "x86_64-pc-linux-gnu"

@.str = private unnamed_addr constant [6 x i8] c"%d %d\00", align 1
@.str.1 = private unnamed_addr constant [4 x i8] c" %d\00", align 1
@str = private unnamed_addr constant [3 x i8] c"no\00", align 1
@str.4 = private unnamed_addr constant [4 x i8] c"yes\00", align 1

; Function Attrs: nofree nounwind sspstrong uwtable
define dso_local i32 @main(i32 %0, i8** nocapture readnone %1) local_unnamed_addr #0 {
  %3 = alloca i32, align 4
  %4 = alloca i32, align 4
  %5 = alloca [1000 x i32], align 16
  %6 = bitcast i32* %3 to i8*
  call void @llvm.lifetime.start.p0i8(i64 4, i8* nonnull %6) #4
  %7 = bitcast i32* %4 to i8*
  call void @llvm.lifetime.start.p0i8(i64 4, i8* nonnull %7) #4
  %8 = bitcast [1000 x i32]* %5 to i8*
  call void @llvm.lifetime.start.p0i8(i64 4000, i8* nonnull %8) #4
  %9 = call i32 (i8*, ...) @__isoc99_scanf(i8* getelementptr inbounds ([6 x i8], [6 x i8]* @.str, i64 0, i64 0), i32* nonnull %3, i32* nonnull %4)
  %10 = load i32, i32* %3, align 4, !tbaa !5
  %11 = icmp sgt i32 %10, 0
  br i1 %11, label %18, label %42

12:                                               ; preds = %18
  %13 = load i32, i32* %4, align 4
  %14 = icmp sgt i32 %23, 0
  br i1 %14, label %15, label %42

15:                                               ; preds = %12
  %16 = zext i32 %23 to i64
  %17 = zext i32 %23 to i64
  br label %26

18:                                               ; preds = %2, %18
  %19 = phi i64 [ %22, %18 ], [ 0, %2 ]
  %20 = getelementptr inbounds [1000 x i32], [1000 x i32]* %5, i64 0, i64 %19
  %21 = call i32 (i8*, ...) @__isoc99_scanf(i8* getelementptr inbounds ([4 x i8], [4 x i8]* @.str.1, i64 0, i64 0), i32* nonnull %20)
  %22 = add nuw nsw i64 %19, 1
  %23 = load i32, i32* %3, align 4, !tbaa !5
  %24 = sext i32 %23 to i64
  %25 = icmp slt i64 %22, %24
  br i1 %25, label %18, label %12, !llvm.loop !9

26:                                               ; preds = %15, %39
  %27 = phi i64 [ 0, %15 ], [ %40, %39 ]
  %28 = getelementptr inbounds [1000 x i32], [1000 x i32]* %5, i64 0, i64 %27
  br label %29

29:                                               ; preds = %26, %33
  %30 = phi i64 [ %16, %26 ], [ %31, %33 ]
  %31 = add nsw i64 %30, -1
  %32 = icmp sgt i64 %31, %27
  br i1 %32, label %33, label %39

33:                                               ; preds = %29
  %34 = load i32, i32* %28, align 4, !tbaa !5
  %35 = getelementptr inbounds [1000 x i32], [1000 x i32]* %5, i64 0, i64 %31
  %36 = load i32, i32* %35, align 4, !tbaa !5
  %37 = add nsw i32 %36, %34
  %38 = icmp eq i32 %37, %13
  br i1 %38, label %42, label %29, !llvm.loop !11

39:                                               ; preds = %29
  %40 = add nuw nsw i64 %27, 1
  %41 = icmp eq i64 %40, %17
  br i1 %41, label %42, label %26, !llvm.loop !12

42:                                               ; preds = %39, %33, %12, %2
  %43 = phi i8* [ getelementptr inbounds ([3 x i8], [3 x i8]* @str, i64 0, i64 0), %2 ], [ getelementptr inbounds ([3 x i8], [3 x i8]* @str, i64 0, i64 0), %12 ], [ getelementptr inbounds ([4 x i8], [4 x i8]* @str.4, i64 0, i64 0), %33 ], [ getelementptr inbounds ([3 x i8], [3 x i8]* @str, i64 0, i64 0), %39 ]
  %44 = phi i32 [ 0, %2 ], [ 0, %12 ], [ 1, %33 ], [ 0, %39 ]
  %45 = call i32 @puts(i8* nonnull dereferenceable(1) %43)
  call void @llvm.lifetime.end.p0i8(i64 4000, i8* nonnull %8) #4
  call void @llvm.lifetime.end.p0i8(i64 4, i8* nonnull %7) #4
  call void @llvm.lifetime.end.p0i8(i64 4, i8* nonnull %6) #4
  ret i32 %44
}

; Function Attrs: argmemonly mustprogress nofree nosync nounwind willreturn
declare void @llvm.lifetime.start.p0i8(i64 immarg, i8* nocapture) #1

; Function Attrs: nofree nounwind
declare noundef i32 @__isoc99_scanf(i8* nocapture noundef readonly, ...) local_unnamed_addr #2

; Function Attrs: argmemonly mustprogress nofree nosync nounwind willreturn
declare void @llvm.lifetime.end.p0i8(i64 immarg, i8* nocapture) #1

; Function Attrs: nofree nounwind
declare noundef i32 @puts(i8* nocapture noundef readonly) local_unnamed_addr #3


!llvm.module.flags = !{!0, !1, !2, !3}
!llvm.ident = !{!4}

!0 = !{i32 1, !"wchar_size", i32 4}
!1 = !{i32 7, !"PIC Level", i32 2}
!2 = !{i32 7, !"PIE Level", i32 2}
!3 = !{i32 7, !"uwtable", i32 1}
!4 = !{!"clang version 13.0.0"}
!5 = !{!6, !6, i64 0}
!6 = !{!"int", !7, i64 0}
!7 = !{!"omnipotent char", !8, i64 0}
!8 = !{!"Simple C/C++ TBAA"}
!9 = distinct !{!9, !10}
!10 = !{!"llvm.loop.mustprogress"}
!11 = distinct !{!11, !10}
!12 = distinct !{!12, !10}
